; Function Attrs: mustprogress uwtable
define hidden void @_ZN7Imf_3_29InputFileC2EPNS_13InputPartDataE(ptr noundef nonnull align 8 dereferenceable(16) %this, ptr noundef %part) unnamed_addr #3 align 2 personality ptr @__gxx_personality_v0 {
entry:
  %ref.tmp.i = alloca %"class.Imath_3_2::Vec2", align 8
  tail call void @_ZN7Imf_3_216GenericInputFileC2Ev(ptr noundef nonnull align 8 dereferenceable(8) %this)
  store ptr getelementptr inbounds ({ [4 x ptr] }, ptr @_ZTVN7Imf_3_29InputFileE, i64 0, i32 0, i64 2), ptr %this, align 8
  %_data = getelementptr inbounds i8, ptr %this, i64 8
  %call = invoke noalias noundef nonnull dereferenceable(264) ptr @_Znwm(i64 noundef 264) #25
          to label %invoke.cont unwind label %lpad

invoke.cont:                                      ; preds = %entry
  %numThreads = getelementptr inbounds i8, ptr %part, i64 56
  %0 = load i32, ptr %numThreads, align 8
  call void @llvm.lifetime.start.p0(i64 8, ptr nonnull %ref.tmp.i)
  tail call void @llvm.memset.p0.i64(ptr noundef nonnull align 8 dereferenceable(40) %call, i8 0, i64 40, i1 false)
  %header.i = getelementptr inbounds i8, ptr %call, i64 40
  store <2 x float> zeroinitializer, ptr %ref.tmp.i, align 8
  invoke void @_ZN7Imf_3_26HeaderC1EiifRKN9Imath_3_24Vec2IfEEfNS_9LineOrderENS_11CompressionE(ptr noundef nonnull align 8 dereferenceable(49) %header.i, i32 noundef 64, i32 noundef 64, float noundef 1.000000e+00, ptr noundef nonnull align 4 dereferenceable(8) %ref.tmp.i, float noundef 1.000000e+00, i32 noundef 0, i32 noundef 3)
          to label %invoke.cont3 unwind label %lpad2

invoke.cont3:                                     ; preds = %invoke.cont
  %isTiled.i = getelementptr inbounds i8, ptr %call, i64 100
  store i8 0, ptr %isTiled.i, align 4
  %tFile.i = getelementptr inbounds i8, ptr %call, i64 104
  %1 = getelementptr inbounds i8, ptr %call, i64 152
  store i32 0, ptr %1, align 8
  %_M_parent.i.i.i.i.i.i.i = getelementptr inbounds i8, ptr %call, i64 160
  store ptr null, ptr %_M_parent.i.i.i.i.i.i.i, align 8
  %_M_left.i.i.i.i.i.i.i = getelementptr inbounds i8, ptr %call, i64 168
  call void @llvm.memset.p0.i64(ptr noundef nonnull align 8 dereferenceable(24) %tFile.i, i8 0, i64 24, i1 false)
  store ptr %1, ptr %_M_left.i.i.i.i.i.i.i, align 8
  %_M_right.i.i.i.i.i.i.i = getelementptr inbounds i8, ptr %call, i64 176
  store ptr %1, ptr %_M_right.i.i.i.i.i.i.i, align 8
  %_M_node_count.i.i.i.i.i.i.i = getelementptr inbounds i8, ptr %call, i64 184
  %cachedTileY.i = getelementptr inbounds i8, ptr %call, i64 208
  call void @llvm.memset.p0.i64(ptr noundef nonnull align 8 dereferenceable(24) %_M_node_count.i.i.i.i.i.i.i, i8 0, i64 24, i1 false)
  store i32 -1, ptr %cachedTileY.i, align 8
  %numThreads2.i = getelementptr inbounds i8, ptr %call, i64 216
  store i32 %0, ptr %numThreads2.i, align 8
  %partNumber.i = getelementptr inbounds i8, ptr %call, i64 220
  store i32 -1, ptr %partNumber.i, align 4
  %part.i = getelementptr inbounds i8, ptr %call, i64 224
  store ptr null, ptr %part.i, align 8
  %multiPartBackwardSupport.i = getelementptr inbounds i8, ptr %call, i64 232
  store i8 0, ptr %multiPartBackwardSupport.i, align 8
  %multiPartFile.i = getelementptr inbounds i8, ptr %call, i64 240
  store i64 0, ptr %multiPartFile.i, align 8
  call void @llvm.lifetime.end.p0(i64 8, ptr nonnull %ref.tmp.i)
  store ptr %call, ptr %_data, align 8
  %_deleteStream = getelementptr inbounds i8, ptr %call, i64 256
  store i8 0, ptr %_deleteStream, align 8
  %mutex.i = getelementptr inbounds i8, ptr %part, i64 72
  %2 = load ptr, ptr %mutex.i, align 8
  %_streamData.i = getelementptr inbounds i8, ptr %call, i64 248
  store ptr %2, ptr %_streamData.i, align 8
  %version.i = getelementptr inbounds i8, ptr %part, i64 64
  %3 = load i32, ptr %version.i, align 8
  %version3.i = getelementptr inbounds i8, ptr %call, i64 96
  store i32 %3, ptr %version3.i, align 8
  %call.i4 = invoke noundef nonnull align 8 dereferenceable(49) ptr @_ZN7Imf_3_26HeaderaSERKS0_(ptr noundef nonnull align 8 dereferenceable(49) %header.i, ptr noundef nonnull align 8 dereferenceable(49) %part)
          to label %call.i.noexc unwind label %lpad5

call.i.noexc:                                     ; preds = %invoke.cont3
  %partNumber.i3 = getelementptr inbounds i8, ptr %part, i64 60
  %4 = load i32, ptr %partNumber.i3, align 4
  %5 = load ptr, ptr %_data, align 8
  %partNumber7.i = getelementptr inbounds i8, ptr %5, i64 220
  store i32 %4, ptr %partNumber7.i, align 4
  %6 = load ptr, ptr %_data, align 8
  %part9.i = getelementptr inbounds i8, ptr %6, i64 224
  store ptr %part, ptr %part9.i, align 8
  invoke void @_ZN7Imf_3_29InputFile10initializeEv(ptr noundef nonnull align 8 dereferenceable(16) %this)
          to label %try.cont unwind label %lpad5

lpad:                                             ; preds = %entry
  %7 = landingpad { ptr, i32 }
          cleanup
  br label %ehcleanup

lpad2:                                            ; preds = %invoke.cont
  %8 = landingpad { ptr, i32 }
          cleanup
  call void @_ZdlPv(ptr noundef nonnull %call) #23
  br label %ehcleanup

lpad5:                                            ; preds = %call.i.noexc, %invoke.cont3
  %9 = landingpad { ptr, i32 }
          catch ptr null
  %10 = extractvalue { ptr, i32 } %9, 0
  %11 = call ptr @__cxa_begin_catch(ptr %10) #20
  %12 = load ptr, ptr %_data, align 8
  %isnull = icmp eq ptr %12, null
  br i1 %isnull, label %delete.end, label %delete.notnull

delete.notnull:                                   ; preds = %lpad5
  call void @_ZN7Imf_3_29InputFile4DataD2Ev(ptr noundef nonnull align 8 dereferenceable(257) %12) #20
  call void @_ZdlPv(ptr noundef nonnull %12) #23
  br label %delete.end

delete.end:                                       ; preds = %delete.notnull, %lpad5
  invoke void @__cxa_rethrow() #22
          to label %unreachable unwind label %lpad8

lpad8:                                            ; preds = %delete.end
  %13 = landingpad { ptr, i32 }
          cleanup
  invoke void @__cxa_end_catch()
          to label %ehcleanup unwind label %terminate.lpad

try.cont:                                         ; preds = %call.i.noexc
  ret void

ehcleanup:                                        ; preds = %lpad8, %lpad2, %lpad
  %.pn = phi { ptr, i32 } [ %13, %lpad8 ], [ %8, %lpad2 ], [ %7, %lpad ]
  call void @_ZN7Imf_3_216GenericInputFileD2Ev(ptr noundef nonnull align 8 dereferenceable(8) %this) #20
  resume { ptr, i32 } %.pn

terminate.lpad:                                   ; preds = %lpad8
  %14 = landingpad { ptr, i32 }
          catch ptr null
  %15 = extractvalue { ptr, i32 } %14, 0
  call void @__clang_call_terminate(ptr %15) #21
  unreachable

unreachable:                                      ; preds = %delete.end
  unreachable
}